; Function Attrs: nounwind uwtable
define dso_local void @rewriteConfigBytesOption(ptr nocapture noundef %state, ptr noundef %option, i64 noundef %value, i64 noundef %defvalue) local_unnamed_addr #2 {
entry:
  %buf = alloca [64 x i8], align 16
  %tobool.not.i = icmp ne i64 %value, 0
  %0 = and i64 %value, 1073741823
  %cmp.i = icmp eq i64 %0, 0
  %or.cond.i = and i1 %tobool.not.i, %cmp.i
  br i1 %or.cond.i, label %if.then.i, label %if.else.i

if.then.i:                                        ; preds = %entry
  %div.i = ashr exact i64 %value, 30
  %call.i = call i32 (ptr, i64, ptr, ...) @snprintf(ptr noundef nonnull dereferenceable(1) %buf, i64 noundef 64, ptr noundef nonnull @.str.99, i64 noundef %div.i) #24
  br label %rewriteConfigFormatMemory.exit

if.else.i:                                        ; preds = %entry
  %1 = and i64 %value, 1048575
  %cmp7.i = icmp eq i64 %1, 0
  %or.cond20.i = and i1 %tobool.not.i, %cmp7.i
  br i1 %or.cond20.i, label %if.then9.i, label %if.else13.i

if.then9.i:                                       ; preds = %if.else.i
  %div11.i = ashr exact i64 %value, 20
  %call12.i = call i32 (ptr, i64, ptr, ...) @snprintf(ptr noundef nonnull dereferenceable(1) %buf, i64 noundef 64, ptr noundef nonnull @.str.100, i64 noundef %div11.i) #24
  br label %rewriteConfigFormatMemory.exit

if.else13.i:                                      ; preds = %if.else.i
  %2 = and i64 %value, 1023
  %cmp18.i = icmp eq i64 %2, 0
  %or.cond22.i = and i1 %tobool.not.i, %cmp18.i
  br i1 %or.cond22.i, label %if.then20.i, label %if.else24.i

if.then20.i:                                      ; preds = %if.else13.i
  %div22.i = ashr exact i64 %value, 10
  %call23.i = call i32 (ptr, i64, ptr, ...) @snprintf(ptr noundef nonnull dereferenceable(1) %buf, i64 noundef 64, ptr noundef nonnull @.str.101, i64 noundef %div22.i) #24
  br label %rewriteConfigFormatMemory.exit

if.else24.i:                                      ; preds = %if.else13.i
  %call25.i = call i32 (ptr, i64, ptr, ...) @snprintf(ptr noundef nonnull dereferenceable(1) %buf, i64 noundef 64, ptr noundef nonnull @.str.102, i64 noundef %value) #24
  br label %rewriteConfigFormatMemory.exit

rewriteConfigFormatMemory.exit:                   ; preds = %if.then.i, %if.then9.i, %if.then20.i, %if.else24.i
  %cmp = icmp ne i64 %value, %defvalue
  %conv = zext i1 %cmp to i32
  %call1 = tail call ptr @sdsempty() #24
  %call3 = call ptr (ptr, ptr, ...) @sdscatprintf(ptr noundef %call1, ptr noundef nonnull @.str.103, ptr noundef %option, ptr noundef nonnull %buf) #24
  %call4 = call i32 @rewriteConfigRewriteLine(ptr noundef %state, ptr noundef %option, ptr noundef %call3, i32 noundef %conv), !range !30
  ret void
}